target datalayout = "e-m:e-p270:32:32-p271:32:32-p272:64:64-i64:64-i128:128-f80:128-n8:16:32:64-S128"
target triple = "x86_64-pc-linux-gnu"

%struct.strbuf = type { i64, i64, ptr }
%struct.active_request_slot = type { ptr, i32, i32, i64, ptr, ptr, ptr, ptr, ptr }
%struct.object_id = type { [32 x i8], i32 }
%struct.http_object_request = type { ptr, %struct.strbuf, i32, i32, [256 x i8], i64, %struct.object_id, %struct.object_id, %union.git_hash_ctx, %struct.git_zstream, i32, i32, ptr, ptr }
%union.git_hash_ctx = type { %struct.SHA1_CTX }
%struct.SHA1_CTX = type { i64, [5 x i32], [64 x i8], i32, i32, i32, i32, i32, ptr, [5 x i32], [5 x i32], [80 x i32], [80 x i32], [80 x [5 x i32]] }
%struct.git_zstream = type { %struct.z_stream_s, i64, i64, i64, i64, ptr, ptr }
%struct.z_stream_s = type { ptr, i32, i64, ptr, i32, i64, ptr, ptr, ptr, ptr, ptr, i32, i64, i64 }

; Function Attrs: nounwind uwtable
define dso_local void @process_http_object_request(ptr noundef %0) #0 {
  %2 = alloca ptr, align 8
  store ptr %0, ptr %2, align 8, !tbaa !201
  %3 = load ptr, ptr %2, align 8, !tbaa !201
  %4 = getelementptr inbounds nuw %struct.http_object_request, ptr %3, i32 0, i32 12
  %5 = load ptr, ptr %4, align 8, !tbaa !213
  %6 = icmp ne ptr %5, null
  br i1 %6, label %8, label %7

7:                                                ; preds = %1
  br label %25

8:                                                ; preds = %1
  %9 = load ptr, ptr %2, align 8, !tbaa !201
  %10 = getelementptr inbounds nuw %struct.http_object_request, ptr %9, i32 0, i32 12
  %11 = load ptr, ptr %10, align 8, !tbaa !213
  %12 = getelementptr inbounds nuw %struct.active_request_slot, ptr %11, i32 0, i32 2
  %13 = load i32, ptr %12, align 4, !tbaa !110
  %14 = load ptr, ptr %2, align 8, !tbaa !201
  %15 = getelementptr inbounds nuw %struct.http_object_request, ptr %14, i32 0, i32 3
  store i32 %13, ptr %15, align 4, !tbaa !225
  %16 = load ptr, ptr %2, align 8, !tbaa !201
  %17 = getelementptr inbounds nuw %struct.http_object_request, ptr %16, i32 0, i32 12
  %18 = load ptr, ptr %17, align 8, !tbaa !213
  %19 = getelementptr inbounds nuw %struct.active_request_slot, ptr %18, i32 0, i32 3
  %20 = load i64, ptr %19, align 8, !tbaa !216
  %21 = load ptr, ptr %2, align 8, !tbaa !201
  %22 = getelementptr inbounds nuw %struct.http_object_request, ptr %21, i32 0, i32 5
  store i64 %20, ptr %22, align 8, !tbaa !226
  %23 = load ptr, ptr %2, align 8, !tbaa !201
  %24 = getelementptr inbounds nuw %struct.http_object_request, ptr %23, i32 0, i32 12
  store ptr null, ptr %24, align 8, !tbaa !213
  br label %25

25:                                               ; preds = %8, %7
  ret void
}