; Function Attrs: mustprogress nofree norecurse nosync nounwind willreturn memory(read, argmem: readwrite, inaccessiblemem: none) uwtable
define dso_local void @process_http_object_request(ptr noundef captures(none) %0) local_unnamed_addr #18 {
  %2 = getelementptr inbounds nuw i8, ptr %0, i64 2944
  %3 = load ptr, ptr %2, align 8, !tbaa !187
  %.not = icmp eq ptr %3, null
  br i1 %.not, label %11, label %4

4:                                                ; preds = %1
  %5 = getelementptr inbounds nuw i8, ptr %3, i64 12
  %6 = load i32, ptr %5, align 4, !tbaa !97
  %7 = getelementptr inbounds nuw i8, ptr %0, i64 36
  store i32 %6, ptr %7, align 4, !tbaa !197
  %8 = getelementptr inbounds nuw i8, ptr %3, i64 16
  %9 = load i64, ptr %8, align 8, !tbaa !102
  %10 = getelementptr inbounds nuw i8, ptr %0, i64 296
  store i64 %9, ptr %10, align 8, !tbaa !198
  store ptr null, ptr %2, align 8, !tbaa !187
  br label %11

11:                                               ; preds = %1, %4
  ret void
}